(dp0
S'info'
p1
I0
sS'function'
p2
I0
sS'error'
p3
I0
sS'statement'
p4
I6
sS'by_msg'
p5
(dp6
sS'refactor'
p7
I0
sS'method'
p8
I0
sS'cycles'
p9
(lp10
sS'warning'
p11
I0
sS'module'
p12
I1
sS'dependencies'
p13
(dp14
S'django.core.management'
p15
c__builtin__
set
p16
((lp17
S'.~c9_invoke_tOg7'
p18
atp19
Rp20
ssS'convention'
p21
I0
sS'fatal'
p22
I0
sS'class'
p23
I0
sS'by_module'
p24
(dp25
g18
(dp26
g1
I0
sg21
I0
sg7
I0
sg11
I0
sg4
I0
sg3
I0
sg22
I0
sss.