(dp0
S'info'
p1
I0
sS'function'
p2
I0
sS'error'
p3
I5
sS'by_msg'
p4
(dp5
S'unused-variable'
p6
I1
sS'print-statement'
p7
I4
sS'undefined-variable'
p8
I1
ssS'refactor'
p9
I0
sS'method'
p10
I0
sS'warning'
p11
I1
sS'module'
p12
I0
sS'statement'
p13
I42
sS'convention'
p14
I0
sS'fatal'
p15
I0
sS'class'
p16
I2
sS'by_module'
p17
(dp18
S'c9_pyl_kcB3q9'
p19
(dp20
g1
I0
sg14
I0
sg9
I0
sg11
I1
sg13
I0
sg3
I5
sg15
I0
sss.